target datalayout = "e-m:e-p270:32:32-p271:32:32-p272:64:64-i64:64-i128:128-f80:128-n8:16:32:64-S128"
target triple = "x86_64-pc-linux-gnu"

%struct.expert_field = type { i32, i32 }
%struct._packet_info = type { ptr, ptr, i32, i32, %struct.nstime_t, %struct.nstime_t, %struct.nstime_t, i8, ptr, ptr, ptr, ptr, %struct._address, %struct._address, %struct._address, %struct._address, %struct._address, %struct._address, i32, ptr, i8, [3 x i8], %struct.anon, i32, i32, i32, i32, ptr, i8, ptr, ptr, i16, i16, i32, i32, i16, i32, i32, ptr, ptr, ptr, i8, i8, i16, i16, i16, i32, i16, i16, ptr, ptr, ptr, ptr, ptr, i32, i32 }
%struct.nstime_t = type { i64, i32 }
%struct._address = type { i32, i32, ptr, ptr }
%struct.anon = type { i8, [3 x i8] }
%struct._alcap_message_info_t = type { i32, i32, i32, i32, i32, i32, ptr, ptr, i32 }

@hf_alcap_ceid_pathid = internal global i32 0, align 4
@hf_alcap_ceid_cid = internal global i32 0, align 4
@ei_alcap_parameter_field_bad_length = internal global %struct.expert_field zeroinitializer, align 4
@.str.412 = private unnamed_addr constant [20 x i8] c"Path: 0 (All Paths)\00", align 1
@.str.413 = private unnamed_addr constant [28 x i8] c"Path: %u CID: 0 (Every CID)\00", align 1
@.str.414 = private unnamed_addr constant [17 x i8] c"Path: %u CID: %u\00", align 1

; Function Attrs: null_pointer_is_valid sspstrong uwtable
define internal ptr @dissect_fields_ceid(ptr noundef %0, ptr noundef %1, ptr noundef %2, i32 noundef %3, i32 noundef %4, ptr noundef %5) #0 {
  %7 = alloca ptr, align 8
  %8 = alloca ptr, align 8
  %9 = alloca ptr, align 8
  %10 = alloca ptr, align 8
  %11 = alloca i32, align 4
  %12 = alloca i32, align 4
  %13 = alloca ptr, align 8
  store ptr %0, ptr %8, align 8
  store ptr %1, ptr %9, align 8
  store ptr %2, ptr %10, align 8
  store i32 %3, ptr %11, align 4
  store i32 %4, ptr %12, align 4
  store ptr %5, ptr %13, align 8
  %14 = load i32, ptr %12, align 4
  %15 = icmp ne i32 %14, 5
  br i1 %15, label %16, label %23

16:                                               ; preds = %6
  %17 = load ptr, ptr %10, align 8
  %18 = load ptr, ptr %8, align 8
  %19 = load ptr, ptr %9, align 8
  %20 = load i32, ptr %11, align 4
  %21 = load i32, ptr %12, align 4
  %22 = call ptr @proto_tree_add_expert(ptr noundef %17, ptr noundef %18, ptr noundef @ei_alcap_parameter_field_bad_length, ptr noundef %19, i32 noundef %20, i32 noundef %21)
  store ptr null, ptr %7, align 8
  br label %73

23:                                               ; preds = %6
  %24 = load ptr, ptr %10, align 8
  %25 = load i32, ptr @hf_alcap_ceid_pathid, align 4
  %26 = load ptr, ptr %9, align 8
  %27 = load i32, ptr %11, align 4
  %28 = load ptr, ptr %13, align 8
  %29 = getelementptr inbounds nuw %struct._alcap_message_info_t, ptr %28, i32 0, i32 3
  %30 = call ptr @proto_tree_add_item_ret_uint(ptr noundef %24, i32 noundef %25, ptr noundef %26, i32 noundef %27, i32 noundef 4, i32 noundef 0, ptr noundef %29)
  %31 = load ptr, ptr %9, align 8
  %32 = load i32, ptr %11, align 4
  %33 = add i32 %32, 4
  %34 = call zeroext i8 @tvb_get_uint8(ptr noundef %31, i32 noundef %33)
  %35 = zext i8 %34 to i32
  %36 = load ptr, ptr %13, align 8
  %37 = getelementptr inbounds nuw %struct._alcap_message_info_t, ptr %36, i32 0, i32 4
  store i32 %35, ptr %37, align 8
  %38 = load ptr, ptr %13, align 8
  %39 = getelementptr inbounds nuw %struct._alcap_message_info_t, ptr %38, i32 0, i32 3
  %40 = load i32, ptr %39, align 4
  %41 = icmp eq i32 %40, 0
  br i1 %41, label %42, label %43

42:                                               ; preds = %23
  store ptr @.str.412, ptr %7, align 8
  br label %73

43:                                               ; preds = %23
  %44 = load ptr, ptr %10, align 8
  %45 = load i32, ptr @hf_alcap_ceid_cid, align 4
  %46 = load ptr, ptr %9, align 8
  %47 = load i32, ptr %11, align 4
  %48 = add i32 %47, 4
  %49 = call ptr @proto_tree_add_item(ptr noundef %44, i32 noundef %45, ptr noundef %46, i32 noundef %48, i32 noundef 1, i32 noundef 0)
  %50 = load ptr, ptr %13, align 8
  %51 = getelementptr inbounds nuw %struct._alcap_message_info_t, ptr %50, i32 0, i32 4
  %52 = load i32, ptr %51, align 8
  %53 = icmp eq i32 %52, 0
  br i1 %53, label %54, label %62

54:                                               ; preds = %43
  %55 = load ptr, ptr %8, align 8
  %56 = getelementptr inbounds nuw %struct._packet_info, ptr %55, i32 0, i32 51
  %57 = load ptr, ptr %56, align 8
  %58 = load ptr, ptr %13, align 8
  %59 = getelementptr inbounds nuw %struct._alcap_message_info_t, ptr %58, i32 0, i32 3
  %60 = load i32, ptr %59, align 4
  %61 = call noalias ptr (ptr, ptr, ...) @wmem_strdup_printf(ptr noundef %57, ptr noundef @.str.413, i32 noundef %60)
  store ptr %61, ptr %7, align 8
  br label %73

62:                                               ; preds = %43
  %63 = load ptr, ptr %8, align 8
  %64 = getelementptr inbounds nuw %struct._packet_info, ptr %63, i32 0, i32 51
  %65 = load ptr, ptr %64, align 8
  %66 = load ptr, ptr %13, align 8
  %67 = getelementptr inbounds nuw %struct._alcap_message_info_t, ptr %66, i32 0, i32 3
  %68 = load i32, ptr %67, align 4
  %69 = load ptr, ptr %13, align 8
  %70 = getelementptr inbounds nuw %struct._alcap_message_info_t, ptr %69, i32 0, i32 4
  %71 = load i32, ptr %70, align 8
  %72 = call noalias ptr (ptr, ptr, ...) @wmem_strdup_printf(ptr noundef %65, ptr noundef @.str.414, i32 noundef %68, i32 noundef %71)
  store ptr %72, ptr %7, align 8
  br label %73

73:                                               ; preds = %62, %54, %42, %16
  %74 = load ptr, ptr %7, align 8
  ret ptr %74
}