; Function Attrs: null_pointer_is_valid sspstrong uwtable
define internal ptr @dissect_fields_ceid(ptr noundef %0, ptr noundef %1, ptr noundef %2, i32 noundef %3, i32 noundef %4, ptr noundef %5) #0 {
  %.not = icmp eq i32 %4, 5
  br i1 %.not, label %9, label %7

7:                                                ; preds = %6
  %8 = tail call ptr @proto_tree_add_expert(ptr noundef %2, ptr noundef %0, ptr noundef nonnull @ei_alcap_parameter_field_bad_length, ptr noundef %1, i32 noundef %3, i32 noundef %4)
  br label %31

9:                                                ; preds = %6
  %10 = load i32, ptr @hf_alcap_ceid_pathid, align 4
  %11 = getelementptr inbounds nuw i8, ptr %5, i64 12
  %12 = tail call ptr @proto_tree_add_item_ret_uint(ptr noundef %2, i32 noundef %10, ptr noundef %1, i32 noundef %3, i32 noundef 4, i32 noundef 0, ptr noundef nonnull %11)
  %13 = add i32 %3, 4
  %14 = tail call zeroext i8 @tvb_get_uint8(ptr noundef %1, i32 noundef %13)
  %15 = zext i8 %14 to i32
  %16 = getelementptr inbounds nuw i8, ptr %5, i64 16
  store i32 %15, ptr %16, align 8
  %17 = load i32, ptr %11, align 4
  %18 = icmp eq i32 %17, 0
  br i1 %18, label %31, label %19

19:                                               ; preds = %9
  %20 = load i32, ptr @hf_alcap_ceid_cid, align 4
  %21 = tail call ptr @proto_tree_add_item(ptr noundef %2, i32 noundef %20, ptr noundef %1, i32 noundef %13, i32 noundef 1, i32 noundef 0)
  %22 = load i32, ptr %16, align 8
  %23 = icmp eq i32 %22, 0
  %24 = getelementptr inbounds nuw i8, ptr %0, i64 408
  %25 = load ptr, ptr %24, align 8
  %26 = load i32, ptr %11, align 4
  br i1 %23, label %27, label %29

27:                                               ; preds = %19
  %28 = tail call noalias ptr (ptr, ptr, ...) @wmem_strdup_printf(ptr noundef %25, ptr noundef nonnull @.str.413, i32 noundef %26)
  br label %31

29:                                               ; preds = %19
  %30 = tail call noalias ptr (ptr, ptr, ...) @wmem_strdup_printf(ptr noundef %25, ptr noundef nonnull @.str.414, i32 noundef %26, i32 noundef %22)
  br label %31

31:                                               ; preds = %9, %29, %27, %7
  %.0 = phi ptr [ null, %7 ], [ %28, %27 ], [ %30, %29 ], [ @.str.412, %9 ]
  ret ptr %.0
}